(lp1
I3
aI335
aI28
aI336
aI333
aI765
aI16
aI91
aI131
aI63
aI67
aI68
aI176
aI168
aI138
aI170
aI24
aI656
aI26
aI27
aI20
aI21
aI23
aI297
aI42
aI1072
aI1371
aI657
aI2
aI4
aI6
aI8
aI287
aI521
aI753
aI1069
aI633
aI469
aI956
aI286
aI638
aI562
aI1151
aI567
aI120
aI123
aI267
aI266
aI227
aI129
aI92
aI1395
aI163
aI1551
aI10
aI13
aI59
aI14
aI16
aI19
aI54
aI56
aI53
aI370
aI103
aI501
aI821
aI150
aI199
aI159
aI312
aI311
aI310
aI191
aI203
aI392
aI111
aI49
aI113
aI394
aI83
aI119
aI118
aI85
aI796
aI174
aI518
aI46
aI47
aI45
aI112
aI43
aI40
aI41
aI429
aI3
aI5
aI1019
aI7
aI435
aI9
aI423
aI361
aI124
aI449
aI145
aI142
aI1338
aI207
aI899
aI302
aI148
aI149
aI77
aI381
aI75
aI109
aI73
aI242
aI36
aI100
aI248
aI105
aI844
aI1057
aI32
aI31
aI30
aI37
aI36
aI34
aI640
aI809
aI1
aI351
aI437
aI512
aI433
a.