(lp1
I338
aI211
aI177
aI7380
aI7590
aI257
aI255
aI7457
aI7599
aI7598
aI7597
aI7596
aI7595
aI7594
aI3254
aI3516
aI7591
aI7459
aI7412
aI7516
aI7559
aI7514
aI7513
aI7417
aI7510
aI7550
aI7556
aI2408
aI7554
aI7566
aI7558
aI759
aI7398
aI7485
aI7484
aI7480
aI3133
aI90
aI95
aI11
aI7567
aI7564
aI7442
aI15
aI7563
aI7447
aI7448
aI7604
aI7603
aI7602
aI7601
aI7600
aI7522
aI7523
aI416
aI7521
aI7555
aI7528
aI7406
aI7586
aI7470
aI7483
aI3774
aI197
aI7479
aI272
aI7477
aI7568
aI7408
aI7575
aI7574
aI7505
aI7578
aI946
aI7435
aI7433
aI7535
aI7471
aI7472
aI7474
aI7475
aI7532
aI384
aI1760
aI7588
aI2336
aI7584
aI7585
aI7371
aI7587
aI7583
aI7504
aI7426
aI7506
aI7507
aI7423
aI7501
aI7503
aI7540
aI7542
aI7543
aI7544
a.